
elektrokosti.elf:     file format elf32-avr

Sections:
Idx Name          Size      VMA       LMA       File off  Algn
  0 .text         000001e8  00000000  00000000  00000074  2**1
                  CONTENTS, ALLOC, LOAD, READONLY, CODE
  1 .bss          00000005  00800060  00800060  0000025c  2**0
                  ALLOC
  2 .comment      00000030  00000000  00000000  0000025c  2**0
                  CONTENTS, READONLY
  3 .debug_aranges 00000048  00000000  00000000  0000028c  2**0
                  CONTENTS, READONLY, DEBUGGING
  4 .debug_info   00000336  00000000  00000000  000002d4  2**0
                  CONTENTS, READONLY, DEBUGGING
  5 .debug_abbrev 00000181  00000000  00000000  0000060a  2**0
                  CONTENTS, READONLY, DEBUGGING
  6 .debug_line   0000023a  00000000  00000000  0000078b  2**0
                  CONTENTS, READONLY, DEBUGGING
  7 .debug_frame  00000080  00000000  00000000  000009c8  2**2
                  CONTENTS, READONLY, DEBUGGING
  8 .debug_str    000001ab  00000000  00000000  00000a48  2**0
                  CONTENTS, READONLY, DEBUGGING
  9 .debug_loc    000001b8  00000000  00000000  00000bf3  2**0
                  CONTENTS, READONLY, DEBUGGING
 10 .debug_ranges 00000078  00000000  00000000  00000dab  2**0
                  CONTENTS, READONLY, DEBUGGING

Disassembly of section .text:

00000000 <__vectors>:
   0:	12 c0       	rjmp	.+36     	; 0x26 <__ctors_end>
   2:	1f c0       	rjmp	.+62     	; 0x42 <__bad_interrupt>
   4:	1f c0       	rjmp	.+62     	; 0x44 <__vector_2>
   6:	1d c0       	rjmp	.+58     	; 0x42 <__bad_interrupt>
   8:	1c c0       	rjmp	.+56     	; 0x42 <__bad_interrupt>
   a:	1b c0       	rjmp	.+54     	; 0x42 <__bad_interrupt>
   c:	1a c0       	rjmp	.+52     	; 0x42 <__bad_interrupt>
   e:	19 c0       	rjmp	.+50     	; 0x42 <__bad_interrupt>
  10:	18 c0       	rjmp	.+48     	; 0x42 <__bad_interrupt>
  12:	17 c0       	rjmp	.+46     	; 0x42 <__bad_interrupt>
  14:	16 c0       	rjmp	.+44     	; 0x42 <__bad_interrupt>
  16:	15 c0       	rjmp	.+42     	; 0x42 <__bad_interrupt>
  18:	14 c0       	rjmp	.+40     	; 0x42 <__bad_interrupt>
  1a:	13 c0       	rjmp	.+38     	; 0x42 <__bad_interrupt>
  1c:	12 c0       	rjmp	.+36     	; 0x42 <__bad_interrupt>
  1e:	11 c0       	rjmp	.+34     	; 0x42 <__bad_interrupt>
  20:	10 c0       	rjmp	.+32     	; 0x42 <__bad_interrupt>
  22:	0f c0       	rjmp	.+30     	; 0x42 <__bad_interrupt>
  24:	0e c0       	rjmp	.+28     	; 0x42 <__bad_interrupt>

00000026 <__ctors_end>:
  26:	11 24       	eor	r1, r1
  28:	1f be       	out	0x3f, r1	; 63
  2a:	cf ed       	ldi	r28, 0xDF	; 223
  2c:	cd bf       	out	0x3d, r28	; 61

0000002e <__do_clear_bss>:
  2e:	20 e0       	ldi	r18, 0x00	; 0
  30:	a0 e6       	ldi	r26, 0x60	; 96
  32:	b0 e0       	ldi	r27, 0x00	; 0
  34:	01 c0       	rjmp	.+2      	; 0x38 <.do_clear_bss_start>

00000036 <.do_clear_bss_loop>:
  36:	1d 92       	st	X+, r1

00000038 <.do_clear_bss_start>:
  38:	a5 36       	cpi	r26, 0x65	; 101
  3a:	b2 07       	cpc	r27, r18
  3c:	e1 f7       	brne	.-8      	; 0x36 <.do_clear_bss_loop>
  3e:	0d d0       	rcall	.+26     	; 0x5a <main>
  40:	d1 c0       	rjmp	.+418    	; 0x1e4 <_exit>

00000042 <__bad_interrupt>:
  42:	de cf       	rjmp	.-68     	; 0x0 <__vectors>

00000044 <__vector_2>:
			PORTB=0b00001010;
			break;
		}
		case 4:
		{
			PORTD=0b01101000;
  44:	1f 92       	push	r1
			PORTB=0b00000010;
  46:	0f 92       	push	r0
  48:	0f b6       	in	r0, 0x3f	; 63
			break;
  4a:	0f 92       	push	r0
	switch(deg)
	{
		case 1:
		{
			
			PORTD=0b00111100;
  4c:	11 24       	eor	r1, r1
  4e:	f8 94       	cli
			PORTB=0b01001010;
  50:	0f 90       	pop	r0
  52:	0f be       	out	0x3f, r0	; 63
			break;
  54:	0f 90       	pop	r0
//GIMSK=0b00000000;
//		PORTD=0b00001000;
//		PORTB=0b00000000;
//		_delay_ms (1);
//show_led(k);
}
  56:	1f 90       	pop	r1
  58:	18 95       	reti

0000005a <main>:

int main(void)
{


	PORTD=0b01111100;
  5a:	8c e7       	ldi	r24, 0x7C	; 124
  5c:	82 bb       	out	0x12, r24	; 18
//	PORTD=0b00000100;
	 DDRD=0b01110100;
  5e:	84 e7       	ldi	r24, 0x74	; 116
  60:	81 bb       	out	0x11, r24	; 17
	PORTB=0b01001010;
  62:	8a e4       	ldi	r24, 0x4A	; 74
  64:	88 bb       	out	0x18, r24	; 24
//	PORTB=0b00000000;
	 DDRB=0b01001010;
  66:	87 bb       	out	0x17, r24	; 23

//deg_to_led(5);

GIMSK|=(1<<INT1);
  68:	8b b7       	in	r24, 0x3b	; 59
  6a:	80 68       	ori	r24, 0x80	; 128
  6c:	8b bf       	out	0x3b, r24	; 59
//	MCUCR=0b00000010;
//	PCMSK=0b00001000;	
	

	
set_sleep_mode(SLEEP_MODE_PWR_DOWN);
  6e:	85 b7       	in	r24, 0x35	; 53
  70:	80 65       	ori	r24, 0x50	; 80
  72:	85 bf       	out	0x35, r24	; 53
//power_all_disable();	

	sei();
  74:	78 94       	sei
			j++;
			if(j>10)
			{
				j=0;
				k++;
				show_led((k%6)+1);
  76:	46 e0       	ldi	r20, 0x06	; 6
			}
		}
		deg_to_led((i%6)+1);
  78:	e6 e0       	ldi	r30, 0x06	; 6
  7a:	f0 e0       	ldi	r31, 0x00	; 0
			PORTB=0b00001010;
			break;
		}
		case 4:
		{
			PORTD=0b01101000;
  7c:	88 e6       	ldi	r24, 0x68	; 104
  7e:	b8 2e       	mov	r11, r24
			PORTB=0b00000010;
  80:	d2 e0       	ldi	r29, 0x02	; 2
	switch(deg)
	{
		case 1:
		{
			
			PORTD=0b00111100;
  82:	9c e3       	ldi	r25, 0x3C	; 60
  84:	c9 2e       	mov	r12, r25
			PORTB=0b01001010;
  86:	2a e4       	ldi	r18, 0x4A	; 74
  88:	d2 2e       	mov	r13, r18
			PORTB=0b00000010;
			break;
		}
		case 5:
		{
			PORTD=0b00101000;
  8a:	38 e2       	ldi	r19, 0x28	; 40
  8c:	e3 2e       	mov	r14, r19
			break;
		}
		
		case 6:
		{
			PORTD=0b01001000;
  8e:	58 e4       	ldi	r21, 0x48	; 72
  90:	f5 2e       	mov	r15, r21
			PORTB=0b01001010;
			break;
		}
		case 2:
		{
			PORTD=0b01111000;
  92:	08 e7       	ldi	r16, 0x78	; 120
			PORTB=0b00001010;
  94:	ca e0       	ldi	r28, 0x0A	; 10
			break;
		}
		case 3:
		{
			PORTD=0b00111000;
  96:	18 e3       	ldi	r17, 0x38	; 56
	#else
		//round up by default
		__ticks_dc = (uint32_t)(ceil(fabs(__tmp)));
	#endif

	__builtin_avr_delay_cycles(__ticks_dc);
  98:	2a e2       	ldi	r18, 0x2A	; 42
  9a:	2a 95       	dec	r18
  9c:	f1 f7       	brne	.-4      	; 0x9a <main+0x40>
  9e:	00 c0       	rjmp	.+0      	; 0xa0 <main+0x46>
    {
//		j=200;
//	GIMSK=0b10000000;		
		_delay_ms (1);
//	sei();
    	sleep_mode();
  a0:	85 b7       	in	r24, 0x35	; 53
  a2:	80 62       	ori	r24, 0x20	; 32
  a4:	85 bf       	out	0x35, r24	; 53
  a6:	88 95       	sleep
  a8:	85 b7       	in	r24, 0x35	; 53
  aa:	8f 7d       	andi	r24, 0xDF	; 223
  ac:	85 bf       	out	0x35, r24	; 53
  ae:	8a e2       	ldi	r24, 0x2A	; 42
  b0:	8a 95       	dec	r24
  b2:	f1 f7       	brne	.-4      	; 0xb0 <main+0x56>
  b4:	00 c0       	rjmp	.+0      	; 0xb6 <main+0x5c>
unsigned char k;


void led_on()
{
	PORTD&=~((1<<led4)|(1<<led5)|(1<<led6)|(1<<led7));
  b6:	82 b3       	in	r24, 0x12	; 18
  b8:	8b 78       	andi	r24, 0x8B	; 139
  ba:	82 bb       	out	0x12, r24	; 18
	PORTB&=~((1<<led1)|(1<<led2)|(1<<led3));	
  bc:	88 b3       	in	r24, 0x18	; 24
  be:	85 7b       	andi	r24, 0xB5	; 181
  c0:	88 bb       	out	0x18, r24	; 24
  c2:	9a e2       	ldi	r25, 0x2A	; 42
  c4:	9a 95       	dec	r25
  c6:	f1 f7       	brne	.-4      	; 0xc4 <main+0x6a>
  c8:	00 c0       	rjmp	.+0      	; 0xca <main+0x70>
  ca:	80 91 63 00 	lds	r24, 0x0063
  ce:	90 91 64 00 	lds	r25, 0x0064
  d2:	12 c0       	rjmp	.+36     	; 0xf8 <__stack+0x19>
		_delay_ms (1);
		led_on();
		_delay_ms (1);
		while (!(PIND&(1<<key)))
		{
			i++;
  d4:	01 96       	adiw	r24, 0x01	; 1
  d6:	90 93 64 00 	sts	0x0064, r25
  da:	80 93 63 00 	sts	0x0063, r24
			j++;
  de:	20 91 60 00 	lds	r18, 0x0060
  e2:	30 91 61 00 	lds	r19, 0x0061
  e6:	2f 5f       	subi	r18, 0xFF	; 255
  e8:	3f 4f       	sbci	r19, 0xFF	; 255
  ea:	30 93 61 00 	sts	0x0061, r19
  ee:	20 93 60 00 	sts	0x0060, r18
			if(j>10)
  f2:	2b 30       	cpi	r18, 0x0B	; 11
  f4:	31 05       	cpc	r19, r1
  f6:	00 f5       	brcc	.+64     	; 0x138 <__stack+0x59>
//	sei();
    	sleep_mode();
		_delay_ms (1);
		led_on();
		_delay_ms (1);
		while (!(PIND&(1<<key)))
  f8:	83 9b       	sbis	0x10, 3	; 16
  fa:	ec cf       	rjmp	.-40     	; 0xd4 <main+0x7a>
				j=0;
				k++;
				show_led((k%6)+1);
			}
		}
		deg_to_led((i%6)+1);
  fc:	bf 01       	movw	r22, r30
  fe:	5e d0       	rcall	.+188    	; 0x1bc <__udivmodhi4>
 100:	8f 5f       	subi	r24, 0xFF	; 255
	PORTB|=((1<<led1)|(1<<led2)|(1<<led3));	
}

void deg_to_led(unsigned char deg)
{
	switch(deg)
 102:	84 30       	cpi	r24, 0x04	; 4
 104:	09 f4       	brne	.+2      	; 0x108 <__stack+0x29>
 106:	48 c0       	rjmp	.+144    	; 0x198 <__stack+0xb9>
 108:	90 f5       	brcc	.+100    	; 0x16e <__stack+0x8f>
 10a:	82 30       	cpi	r24, 0x02	; 2
 10c:	09 f4       	brne	.+2      	; 0x110 <__stack+0x31>
 10e:	41 c0       	rjmp	.+130    	; 0x192 <__stack+0xb3>
 110:	83 30       	cpi	r24, 0x03	; 3
 112:	e1 f5       	brne	.+120    	; 0x18c <__stack+0xad>
			PORTB=0b00001010;
			break;
		}
		case 3:
		{
			PORTD=0b00111000;
 114:	12 bb       	out	0x12, r17	; 18
			PORTB=0b00001010;
 116:	c8 bb       	out	0x18, r28	; 24
 118:	2f ef       	ldi	r18, 0xFF	; 255
 11a:	8b e2       	ldi	r24, 0x2B	; 43
 11c:	91 e0       	ldi	r25, 0x01	; 1
 11e:	21 50       	subi	r18, 0x01	; 1
 120:	80 40       	sbci	r24, 0x00	; 0
 122:	90 40       	sbci	r25, 0x00	; 0
 124:	e1 f7       	brne	.-8      	; 0x11e <__stack+0x3f>
 126:	00 c0       	rjmp	.+0      	; 0x128 <__stack+0x49>
 128:	00 00       	nop
	PORTB&=~((1<<led1)|(1<<led2)|(1<<led3));	
}

void led_off()
{
	PORTD|=((1<<led4)|(1<<led5)|(1<<led6)|(1<<led7));
 12a:	82 b3       	in	r24, 0x12	; 18
 12c:	84 67       	ori	r24, 0x74	; 116
 12e:	82 bb       	out	0x12, r24	; 18
	PORTB|=((1<<led1)|(1<<led2)|(1<<led3));	
 130:	88 b3       	in	r24, 0x18	; 24
 132:	8a 64       	ori	r24, 0x4A	; 74
 134:	88 bb       	out	0x18, r24	; 24
 136:	b0 cf       	rjmp	.-160    	; 0x98 <main+0x3e>
		{
			i++;
			j++;
			if(j>10)
			{
				j=0;
 138:	10 92 61 00 	sts	0x0061, r1
 13c:	10 92 60 00 	sts	0x0060, r1
				k++;
 140:	80 91 62 00 	lds	r24, 0x0062
 144:	8f 5f       	subi	r24, 0xFF	; 255
 146:	80 93 62 00 	sts	0x0062, r24
				show_led((k%6)+1);
 14a:	64 2f       	mov	r22, r20
 14c:	2b d0       	rcall	.+86     	; 0x1a4 <__udivmodqi4>
 14e:	9f 5f       	subi	r25, 0xFF	; 255
	
}

void show_led(unsigned char i)
{
	switch(i)
 150:	94 30       	cpi	r25, 0x04	; 4
 152:	29 f0       	breq	.+10     	; 0x15e <__stack+0x7f>
 154:	98 f0       	brcs	.+38     	; 0x17c <__stack+0x9d>
 156:	95 30       	cpi	r25, 0x05	; 5
 158:	11 f0       	breq	.+4      	; 0x15e <__stack+0x7f>
 15a:	96 30       	cpi	r25, 0x06	; 6
 15c:	79 f4       	brne	.+30     	; 0x17c <__stack+0x9d>
	PORTB&=~((1<<led1)|(1<<led2)|(1<<led3));	
}

void led_off()
{
	PORTD|=((1<<led4)|(1<<led5)|(1<<led6)|(1<<led7));
 15e:	82 b3       	in	r24, 0x12	; 18
 160:	84 67       	ori	r24, 0x74	; 116
 162:	82 bb       	out	0x12, r24	; 18
	PORTB|=((1<<led1)|(1<<led2)|(1<<led3));	
 164:	88 b3       	in	r24, 0x18	; 24
 166:	8a 64       	ori	r24, 0x4A	; 74
 168:	88 bb       	out	0x18, r24	; 24
		}
		
		case 6:
		{
			led_off();
			PORTD|(1<<led6);
 16a:	82 b3       	in	r24, 0x12	; 18
 16c:	ae cf       	rjmp	.-164    	; 0xca <main+0x70>
	PORTB|=((1<<led1)|(1<<led2)|(1<<led3));	
}

void deg_to_led(unsigned char deg)
{
	switch(deg)
 16e:	85 30       	cpi	r24, 0x05	; 5
 170:	b1 f0       	breq	.+44     	; 0x19e <__stack+0xbf>
 172:	86 30       	cpi	r24, 0x06	; 6
 174:	59 f4       	brne	.+22     	; 0x18c <__stack+0xad>
			break;
		}
		
		case 6:
		{
			PORTD=0b01001000;
 176:	f2 ba       	out	0x12, r15	; 18
			PORTB=0b00000000;
 178:	18 ba       	out	0x18, r1	; 24
 17a:	ce cf       	rjmp	.-100    	; 0x118 <__stack+0x39>
	PORTB&=~((1<<led1)|(1<<led2)|(1<<led3));	
}

void led_off()
{
	PORTD|=((1<<led4)|(1<<led5)|(1<<led6)|(1<<led7));
 17c:	82 b3       	in	r24, 0x12	; 18
 17e:	84 67       	ori	r24, 0x74	; 116
 180:	82 bb       	out	0x12, r24	; 18
	PORTB|=((1<<led1)|(1<<led2)|(1<<led3));	
 182:	88 b3       	in	r24, 0x18	; 24
 184:	8a 64       	ori	r24, 0x4A	; 74
 186:	88 bb       	out	0x18, r24	; 24
			break;
		}
		case 3:
		{
			led_off();
			PORTB|(1<<led3);
 188:	88 b3       	in	r24, 0x18	; 24
 18a:	9f cf       	rjmp	.-194    	; 0xca <main+0x70>
	switch(deg)
	{
		case 1:
		{
			
			PORTD=0b00111100;
 18c:	c2 ba       	out	0x12, r12	; 18
			PORTB=0b01001010;
 18e:	d8 ba       	out	0x18, r13	; 24
 190:	c3 cf       	rjmp	.-122    	; 0x118 <__stack+0x39>
			break;
		}
		case 2:
		{
			PORTD=0b01111000;
 192:	02 bb       	out	0x12, r16	; 18
			PORTB=0b00001010;
 194:	c8 bb       	out	0x18, r28	; 24
 196:	c0 cf       	rjmp	.-128    	; 0x118 <__stack+0x39>
			PORTB=0b00001010;
			break;
		}
		case 4:
		{
			PORTD=0b01101000;
 198:	b2 ba       	out	0x12, r11	; 18
			PORTB=0b00000010;
 19a:	d8 bb       	out	0x18, r29	; 24
 19c:	bd cf       	rjmp	.-134    	; 0x118 <__stack+0x39>
			break;
		}
		case 5:
		{
			PORTD=0b00101000;
 19e:	e2 ba       	out	0x12, r14	; 18
			PORTB=0b00000010;
 1a0:	d8 bb       	out	0x18, r29	; 24
 1a2:	ba cf       	rjmp	.-140    	; 0x118 <__stack+0x39>

000001a4 <__udivmodqi4>:
 1a4:	99 1b       	sub	r25, r25
 1a6:	79 e0       	ldi	r23, 0x09	; 9
 1a8:	04 c0       	rjmp	.+8      	; 0x1b2 <__udivmodqi4_ep>

000001aa <__udivmodqi4_loop>:
 1aa:	99 1f       	adc	r25, r25
 1ac:	96 17       	cp	r25, r22
 1ae:	08 f0       	brcs	.+2      	; 0x1b2 <__udivmodqi4_ep>
 1b0:	96 1b       	sub	r25, r22

000001b2 <__udivmodqi4_ep>:
 1b2:	88 1f       	adc	r24, r24
 1b4:	7a 95       	dec	r23
 1b6:	c9 f7       	brne	.-14     	; 0x1aa <__udivmodqi4_loop>
 1b8:	80 95       	com	r24
 1ba:	08 95       	ret

000001bc <__udivmodhi4>:
 1bc:	aa 1b       	sub	r26, r26
 1be:	bb 1b       	sub	r27, r27
 1c0:	51 e1       	ldi	r21, 0x11	; 17
 1c2:	07 c0       	rjmp	.+14     	; 0x1d2 <__udivmodhi4_ep>

000001c4 <__udivmodhi4_loop>:
 1c4:	aa 1f       	adc	r26, r26
 1c6:	bb 1f       	adc	r27, r27
 1c8:	a6 17       	cp	r26, r22
 1ca:	b7 07       	cpc	r27, r23
 1cc:	10 f0       	brcs	.+4      	; 0x1d2 <__udivmodhi4_ep>
 1ce:	a6 1b       	sub	r26, r22
 1d0:	b7 0b       	sbc	r27, r23

000001d2 <__udivmodhi4_ep>:
 1d2:	88 1f       	adc	r24, r24
 1d4:	99 1f       	adc	r25, r25
 1d6:	5a 95       	dec	r21
 1d8:	a9 f7       	brne	.-22     	; 0x1c4 <__udivmodhi4_loop>
 1da:	80 95       	com	r24
 1dc:	90 95       	com	r25
 1de:	bc 01       	movw	r22, r24
 1e0:	cd 01       	movw	r24, r26
 1e2:	08 95       	ret

000001e4 <_exit>:
 1e4:	f8 94       	cli

000001e6 <__stop_program>:
 1e6:	ff cf       	rjmp	.-2      	; 0x1e6 <__stop_program>
